; Function Attrs: mustprogress nofree norecurse nosync nounwind memory(argmem: readwrite) uwtable
define dso_local void @_Z11btSolveLDLTPKfS0_Pfii(ptr noundef %0, ptr noundef readonly captures(none) %1, ptr noundef captures(none) %2, i32 noundef %3, i32 noundef %4) local_unnamed_addr #0 {
  tail call void @_Z9btSolveL1PKfPfii(ptr noundef %0, ptr noundef %2, i32 noundef %3, i32 noundef %4)
  %6 = icmp sgt i32 %3, 0
  br i1 %6, label %.lr.ph.preheader.i, label %_Z13btVectorScalePfPKfi.exit

.lr.ph.preheader.i:                               ; preds = %5
  %wide.trip.count.i = zext nneg i32 %3 to i64
  br label %.lr.ph.i

.lr.ph.i:                                         ; preds = %.lr.ph.i, %.lr.ph.preheader.i
  %indvars.iv.i = phi i64 [ 0, %.lr.ph.preheader.i ], [ %indvars.iv.next.i, %.lr.ph.i ]
  %7 = getelementptr inbounds nuw float, ptr %1, i64 %indvars.iv.i
  %8 = load float, ptr %7, align 4, !tbaa !4
  %9 = getelementptr inbounds nuw float, ptr %2, i64 %indvars.iv.i
  %10 = load float, ptr %9, align 4, !tbaa !4
  %11 = fmul float %8, %10
  store float %11, ptr %9, align 4, !tbaa !4
  %indvars.iv.next.i = add nuw nsw i64 %indvars.iv.i, 1
  %exitcond.not.i = icmp eq i64 %indvars.iv.next.i, %wide.trip.count.i
  br i1 %exitcond.not.i, label %_Z13btVectorScalePfPKfi.exit, label %.lr.ph.i, !llvm.loop !30

_Z13btVectorScalePfPKfi.exit:                     ; preds = %.lr.ph.i, %5
  tail call void @_Z10btSolveL1TPKfPfii(ptr noundef %0, ptr noundef %2, i32 noundef %3, i32 noundef %4)
  ret void
}